target datalayout = "e-m:e-p270:32:32-p271:32:32-p272:64:64-i64:64-i128:128-f80:128-n8:16:32:64-S128"
target triple = "x86_64-pc-linux-gnu"

%"class.gmx::internal::AnalysisNeighborhoodSearchImpl" = type { i8, float, float, i8, i32, ptr, ptr, ptr, ptr, %struct.t_pbc, i8, i8, [3 x i8], %"class.std::vector", [3 x float], [3 x float], [3 x float], float, float, float, [3 x i32], %"class.std::vector.0", %"class.std::mutex", %"class.std::vector.5" }
%struct.t_pbc = type { i32, i32, i32, i32, [3 x [3 x float]], [3 x float], [3 x float], [3 x float], float, i32, [12 x [3 x i32]], [12 x [3 x float]] }
%"class.std::vector" = type { %"struct.std::_Vector_base" }
%"struct.std::_Vector_base" = type { %"struct.std::_Vector_base<gmx::BasicVector<float>, std::allocator<gmx::BasicVector<float>>>::_Vector_impl" }
%"struct.std::_Vector_base<gmx::BasicVector<float>, std::allocator<gmx::BasicVector<float>>>::_Vector_impl" = type { %"struct.std::_Vector_base<gmx::BasicVector<float>, std::allocator<gmx::BasicVector<float>>>::_Vector_impl_data" }
%"struct.std::_Vector_base<gmx::BasicVector<float>, std::allocator<gmx::BasicVector<float>>>::_Vector_impl_data" = type { ptr, ptr, ptr }
%"class.std::vector.0" = type { %"struct.std::_Vector_base.1" }
%"struct.std::_Vector_base.1" = type { %"struct.std::_Vector_base<std::vector<int>, std::allocator<std::vector<int>>>::_Vector_impl" }
%"struct.std::_Vector_base<std::vector<int>, std::allocator<std::vector<int>>>::_Vector_impl" = type { %"struct.std::_Vector_base<std::vector<int>, std::allocator<std::vector<int>>>::_Vector_impl_data" }
%"struct.std::_Vector_base<std::vector<int>, std::allocator<std::vector<int>>>::_Vector_impl_data" = type { ptr, ptr, ptr }
%"class.std::mutex" = type { %"class.std::__mutex_base" }
%"class.std::__mutex_base" = type { %union.pthread_mutex_t }
%union.pthread_mutex_t = type { %struct.__pthread_mutex_s }
%struct.__pthread_mutex_s = type { i32, i32, i32, i32, i32, i16, i16, %struct.__pthread_internal_list }
%struct.__pthread_internal_list = type { ptr, ptr }
%"class.std::vector.5" = type { %"struct.std::_Vector_base.6" }
%"struct.std::_Vector_base.6" = type { %"struct.std::_Vector_base<std::shared_ptr<gmx::internal::AnalysisNeighborhoodPairSearchImpl>, std::allocator<std::shared_ptr<gmx::internal::AnalysisNeighborhoodPairSearchImpl>>>::_Vector_impl" }
%"struct.std::_Vector_base<std::shared_ptr<gmx::internal::AnalysisNeighborhoodPairSearchImpl>, std::allocator<std::shared_ptr<gmx::internal::AnalysisNeighborhoodPairSearchImpl>>>::_Vector_impl" = type { %"struct.std::_Vector_base<std::shared_ptr<gmx::internal::AnalysisNeighborhoodPairSearchImpl>, std::allocator<std::shared_ptr<gmx::internal::AnalysisNeighborhoodPairSearchImpl>>>::_Vector_impl_data" }
%"struct.std::_Vector_base<std::shared_ptr<gmx::internal::AnalysisNeighborhoodPairSearchImpl>, std::allocator<std::shared_ptr<gmx::internal::AnalysisNeighborhoodPairSearchImpl>>>::_Vector_impl_data" = type { ptr, ptr, ptr }
%"class.gmx::internal::AnalysisNeighborhoodPairSearchImpl" = type <{ ptr, i8, [3 x i8], i32, ptr, ptr, ptr, %"class.gmx::ArrayRef", i32, [3 x float], i32, float, [3 x float], i32, [3 x float], i32, [3 x i32], [3 x i32], i32, [4 x i8] }>
%"class.gmx::ArrayRef" = type { %"struct.gmx::ArrayRefIter", %"struct.gmx::ArrayRefIter" }
%"struct.gmx::ArrayRefIter" = type { ptr }
%class.anon.35 = type { i8 }

@.str.4 = private unnamed_addr constant [128 x i8] c"generated/home/dtcxzyw/WorkSpace/Projects/compilers/llvm-opt-benchmark/bench/gromacs/gromacs/src/gromacs/selection/nbsearch.cpp\00", align 1
@.str.13 = private unnamed_addr constant [53 x i8] c"search_.excls_ == nullptr || testIndices_ == nullptr\00", align 1
@.str.14 = private unnamed_addr constant [57 x i8] c"Exclusion IDs not implemented with indexed ref positions\00", align 1
@"__PRETTY_FUNCTION__._ZZN3gmx8internal34AnalysisNeighborhoodPairSearchImpl15startSelfSearchEvENK3$_0clEv" = private unnamed_addr constant [113 x i8] c"auto gmx::internal::AnalysisNeighborhoodPairSearchImpl::startSelfSearch()::(anonymous class)::operator()() const\00", align 1

; Function Attrs: inlinehint mustprogress uwtable
define internal void @"_ZZN3gmx8internal34AnalysisNeighborhoodPairSearchImpl15startSelfSearchEvENK3$_0clEv"(ptr noundef nonnull align 1 dereferenceable(1) %0) #3 align 2 {
  %2 = alloca ptr, align 8
  store ptr %0, ptr %2, align 8, !tbaa !172
  call void @_ZN3gmx8internal13assertHandlerEPKcS2_S2_S2_i(ptr noundef @.str.13, ptr noundef @.str.14, ptr noundef @"__PRETTY_FUNCTION__._ZZN3gmx8internal34AnalysisNeighborhoodPairSearchImpl15startSelfSearchEvENK3$_0clEv", ptr noundef @.str.4, i32 noundef 1070) #24
  unreachable
}

; Function Attrs: mustprogress uwtable
define void @_ZN3gmx8internal34AnalysisNeighborhoodPairSearchImpl15startSelfSearchEv(ptr noundef nonnull align 8 dereferenceable(140) %0) #0 align 2 {
  %2 = alloca ptr, align 8
  %3 = alloca %class.anon.35, align 1
  store ptr %0, ptr %2, align 8, !tbaa !162
  %4 = load ptr, ptr %2, align 8
  %5 = getelementptr inbounds nuw %"class.gmx::internal::AnalysisNeighborhoodPairSearchImpl", ptr %4, i32 0, i32 1
  store i8 1, ptr %5, align 8, !tbaa !164
  %6 = getelementptr inbounds nuw %"class.gmx::internal::AnalysisNeighborhoodPairSearchImpl", ptr %4, i32 0, i32 0
  %7 = load ptr, ptr %6, align 8, !tbaa !183
  %8 = getelementptr inbounds nuw %"class.gmx::internal::AnalysisNeighborhoodSearchImpl", ptr %7, i32 0, i32 4
  %9 = load i32, ptr %8, align 8, !tbaa !40
  %10 = getelementptr inbounds nuw %"class.gmx::internal::AnalysisNeighborhoodPairSearchImpl", ptr %4, i32 0, i32 3
  store i32 %9, ptr %10, align 4, !tbaa !168
  %11 = getelementptr inbounds nuw %"class.gmx::internal::AnalysisNeighborhoodPairSearchImpl", ptr %4, i32 0, i32 0
  %12 = load ptr, ptr %11, align 8, !tbaa !183
  %13 = getelementptr inbounds nuw %"class.gmx::internal::AnalysisNeighborhoodSearchImpl", ptr %12, i32 0, i32 5
  %14 = load ptr, ptr %13, align 8, !tbaa !41
  %15 = getelementptr inbounds nuw %"class.gmx::internal::AnalysisNeighborhoodPairSearchImpl", ptr %4, i32 0, i32 4
  store ptr %14, ptr %15, align 8, !tbaa !169
  %16 = getelementptr inbounds nuw %"class.gmx::internal::AnalysisNeighborhoodPairSearchImpl", ptr %4, i32 0, i32 0
  %17 = load ptr, ptr %16, align 8, !tbaa !183
  %18 = getelementptr inbounds nuw %"class.gmx::internal::AnalysisNeighborhoodSearchImpl", ptr %17, i32 0, i32 6
  %19 = load ptr, ptr %18, align 8, !tbaa !42
  %20 = getelementptr inbounds nuw %"class.gmx::internal::AnalysisNeighborhoodPairSearchImpl", ptr %4, i32 0, i32 5
  store ptr %19, ptr %20, align 8, !tbaa !170
  %21 = getelementptr inbounds nuw %"class.gmx::internal::AnalysisNeighborhoodPairSearchImpl", ptr %4, i32 0, i32 0
  %22 = load ptr, ptr %21, align 8, !tbaa !183
  %23 = getelementptr inbounds nuw %"class.gmx::internal::AnalysisNeighborhoodSearchImpl", ptr %22, i32 0, i32 7
  %24 = load ptr, ptr %23, align 8, !tbaa !43
  %25 = getelementptr inbounds nuw %"class.gmx::internal::AnalysisNeighborhoodPairSearchImpl", ptr %4, i32 0, i32 6
  store ptr %24, ptr %25, align 8, !tbaa !171
  %26 = getelementptr inbounds nuw %"class.gmx::internal::AnalysisNeighborhoodPairSearchImpl", ptr %4, i32 0, i32 0
  %27 = load ptr, ptr %26, align 8, !tbaa !183
  %28 = getelementptr inbounds nuw %"class.gmx::internal::AnalysisNeighborhoodSearchImpl", ptr %27, i32 0, i32 8
  %29 = load ptr, ptr %28, align 8, !tbaa !186
  %30 = icmp eq ptr %29, null
  call void @llvm.lifetime.start.p0(i64 1, ptr %3) #20
  br i1 %30, label %35, label %31

31:                                               ; preds = %1
  %32 = getelementptr inbounds nuw %"class.gmx::internal::AnalysisNeighborhoodPairSearchImpl", ptr %4, i32 0, i32 6
  %33 = load ptr, ptr %32, align 8, !tbaa !171
  %34 = icmp eq ptr %33, null
  br i1 %34, label %35, label %36

35:                                               ; preds = %31, %1
  br label %37

36:                                               ; preds = %31
  call void @"_ZZN3gmx8internal34AnalysisNeighborhoodPairSearchImpl15startSelfSearchEvENK3$_0clEv"(ptr noundef nonnull align 1 dereferenceable(1) %3)
  br label %37

37:                                               ; preds = %36, %35
  call void @llvm.lifetime.end.p0(i64 1, ptr %3) #20
  call void @_ZN3gmx8internal34AnalysisNeighborhoodPairSearchImpl5resetEi(ptr noundef nonnull align 8 dereferenceable(140) %4, i32 noundef 0)
  ret void
}