; Function Attrs: mustprogress uwtable
define void @_ZN3gmx8internal34AnalysisNeighborhoodPairSearchImpl15startSelfSearchEv(ptr noundef nonnull align 8 captures(none) dereferenceable(140) initializes((8, 9), (12, 40)) %0) local_unnamed_addr #16 align 2 {
  %2 = getelementptr inbounds nuw i8, ptr %0, i64 8
  store i8 1, ptr %2, align 8, !tbaa !73
  %3 = load ptr, ptr %0, align 8, !tbaa !86
  %4 = getelementptr inbounds nuw i8, ptr %3, i64 16
  %5 = load i32, ptr %4, align 8, !tbaa !37
  %6 = getelementptr inbounds nuw i8, ptr %0, i64 12
  store i32 %5, ptr %6, align 4, !tbaa !180
  %7 = getelementptr inbounds nuw i8, ptr %3, i64 24
  %8 = load ptr, ptr %7, align 8, !tbaa !149
  %9 = getelementptr inbounds nuw i8, ptr %0, i64 16
  store ptr %8, ptr %9, align 8, !tbaa !90
  %10 = getelementptr inbounds nuw i8, ptr %3, i64 32
  %11 = load ptr, ptr %10, align 8, !tbaa !152
  %12 = getelementptr inbounds nuw i8, ptr %0, i64 24
  store ptr %11, ptr %12, align 8, !tbaa !96
  %13 = getelementptr inbounds nuw i8, ptr %3, i64 40
  %14 = load ptr, ptr %13, align 8, !tbaa !147
  %15 = getelementptr inbounds nuw i8, ptr %0, i64 32
  store ptr %14, ptr %15, align 8, !tbaa !85
  %16 = getelementptr inbounds nuw i8, ptr %3, i64 48
  %17 = load ptr, ptr %16, align 8, !tbaa !95
  %18 = icmp eq ptr %17, null
  %19 = icmp eq ptr %14, null
  %or.cond = select i1 %18, i1 true, i1 %19
  br i1 %or.cond, label %21, label %20

20:                                               ; preds = %1
  tail call void @_ZN3gmx8internal13assertHandlerEPKcS2_S2_S2_i(ptr noundef nonnull @.str.13, ptr noundef nonnull @.str.14, ptr noundef nonnull @"__PRETTY_FUNCTION__._ZZN3gmx8internal34AnalysisNeighborhoodPairSearchImpl15startSelfSearchEvENK3$_0clEv", ptr noundef nonnull @.str.4, i32 noundef 1070) #40
  unreachable

21:                                               ; preds = %1
  tail call void @_ZN3gmx8internal34AnalysisNeighborhoodPairSearchImpl5resetEi(ptr noundef nonnull align 8 dereferenceable(140) %0, i32 noundef 0)
  ret void
}